(lp0
(lp1
V\u5317\u4eac
p2
aVbeijing
p3
aS'187'
p4
aa(lp5
V\u4e0a\u6d77
p6
aVshanghai
p7
aS'373'
p8
aa(lp9
V\u5929\u6d25
p10
aVtianjin
p11
aS'171'
p12
aa(lp13
V\u91cd\u5e86
p14
aVchongqing
p15
aS'149'
p16
aa(lp17
V\u978d\u5c71
p18
aVanshan
p19
aS'75'
p20
aa(lp21
V\u5b89\u9633
p22
aVanyang
p23
aS'98'
p24
aa(lp25
V\u5b89\u5e86
p26
aVanqing
p27
aS'169'
p28
aa(lp29
V\u963f\u91cc
p30
aValidiqu
p31
aS'32'
p32
aa(lp33
V\u4fdd\u5b9a
p34
aVbaoding
p35
aS'412'
p36
aa(lp37
V\u5305\u5934
p38
aVbaotou
p39
aS'214'
p40
aa(lp41
V\u672c\u6eaa
p42
aVbenxi
p43
aS'70'
p44
aa(lp45
V\u5317\u6d77
p46
aVbeihai
p47
aS'151'
p48
aa(lp49
V\u5b9d\u9e21
p50
aVbaoji
p51
aS'251'
p52
aa(lp53
V\u4eb3\u5dde
p54
aVbozhou
p55
aS'113'
p56
aa(lp57
V\u868c\u57e0
p58
aVbengpu
p59
aS'189'
p60
aa(lp61
V\u5df4\u4e2d
p62
aVbazhong
p63
aS'62'
p64
aa(lp65
V\u6ee8\u5dde
p66
aVbinzhou
p67
aS'163'
p68
aa(lp69
V\u4fdd\u5c71
p70
aVbaoshan
p71
aS'73'
p72
aa(lp73
V\u5df4\u5f66\u6dd6\u5c14
p74
aVbayanchuoer
p75
aS'62'
p76
aa(lp77
V\u957f\u6cbb
p78
aVchangzhi
p79
aS'158'
p80
aa(lp81
V\u8d64\u5cf0
p82
aVchifeng
p83
aS'80'
p84
aa(lp85
V\u957f\u6625
p86
aVchangchun
p87
aS'131'
p88
aa(lp89
V\u5e38\u5dde
p90
aVchangzhou
p91
aS'370'
p92
aa(lp93
V\u957f\u6c99
p94
aVchangsha
p95
aS'207'
p96
aa(lp97
V\u5e38\u5fb7
p98
aVchangde
p99
aS'138'
p100
aa(lp101
V\u6210\u90fd
p102
aVchengdu
p103
aS'154'
p104
aa(lp105
V\u6ca7\u5dde
p106
aVcangzhou
p107
aS'121'
p108
aa(lp109
V\u627f\u5fb7
p110
aVchengde
p111
aS'138'
p112
aa(lp113
V\u671d\u9633
p114
aVchaoyang
p115
aS'68'
p116
aa(lp117
V\u6ec1\u5dde
p118
aVchuzhou
p119
aS'176'
p120
aa(lp121
V\u5de2\u6e56
p122
aVchaohushi
p123
aS'146'
p124
aa(lp125
V\u6c60\u5dde
p126
aVchizhou
p127
aS'154'
p128
aa(lp129
V\u695a\u96c4
p130
aVchuxiong
p131
aS'57'
p132
aa(lp133
V\u660c\u90fd
p134
aVchangdu
p135
aS'100'
p136
aa(lp137
V\u5927\u540c
p138
aVdatong
p139
aS'80'
p140
aa(lp141
V\u5927\u8fde
p142
aVdalian
p143
aS'63'
p144
aa(lp145
V\u5927\u5e86
p146
aVdaqing
p147
aS'47'
p148
aa(lp149
V\u5fb7\u9633
p150
aVdeyang
p151
aS'99'
p152
aa(lp153
V\u4e1c\u839e
p154
aVdongguan
p155
aS'130'
p156
aa(lp157
V\u4e39\u4e1c
p158
aVdandong
p159
aS'179'
p160
aa(lp161
V\u8fbe\u5dde
p162
aVdazhou
p163
aS'110'
p164
aa(lp165
V\u4e1c\u8425
p166
aVdongying
p167
aS'145'
p168
aa(lp169
V\u5fb7\u5dde
p170
aVdezhou
p171
aS'195'
p172
aa(lp173
V\u5927\u7406
p174
aVdali
p175
aS'33'
p176
aa(lp177
V\u6069\u65bd
p178
aVenshi
p179
aS'50'
p180
aa(lp181
V\u9102\u5c14\u591a\u65af
p182
aVeerduozi
p183
aS'65'
p184
aa(lp185
V\u4e8c\u8fde\u6d69\u7279
p186
aVerlianhaote
p187
aS'56'
p188
aa(lp189
V\u629a\u987a
p190
aVfushun
p191
aS'95'
p192
aa(lp193
V\u798f\u5dde
p194
aVfuzhou
p195
aS'67'
p196
aa(lp197
V\u4f5b\u5c71
p198
aVfoshan
p199
aS'132'
p200
aa(lp201
V\u961c\u65b0
p202
aVfuxin
p203
aS'72'
p204
aa(lp205
V\u961c\u9633
p206
aVfuyang
p207
aS'111'
p208
aa(lp209
V\u629a\u5dde
p210
aVfuzhoushi
p211
aS'128'
p212
aa(lp213
V\u5e7f\u5dde
p214
aVguangzhou
p215
aS'127'
p216
aa(lp217
V\u6842\u6797
p218
aVguilin
p219
aS'94'
p220
aa(lp221
V\u8d35\u9633
p222
aVguiyang
p223
aS'151'
p224
aa(lp225
V\u5e7f\u5b89
p226
aVguangan
p227
aS'63'
p228
aa(lp229
V\u5e7f\u5143
p230
aVguangyuan
p231
aS'56'
p232
aa(lp233
V\u8d63\u5dde
p234
aVganzhou
p235
aS'82'
p236
aa(lp237
V\u90af\u90f8
p238
aVhandan
p239
aS'272'
p240
aa(lp241
V\u547c\u548c\u6d69\u7279
p242
aVhuhehaote
p243
aS'239'
p244
aa(lp245
V\u54c8\u5c14\u6ee8
p246
aVhaerbin
p247
aS'113'
p248
aa(lp249
V\u676d\u5dde
p250
aVhangzhou
p251
aS'391'
p252
aa(lp253
V\u6e56\u5dde
p254
aVhuzhou
p255
aS'375'
p256
aa(lp257
V\u5408\u80a5
p258
aVhefei
p259
aS'378'
p260
aa(lp261
V\u6d77\u53e3
p262
aVhaikou
p263
aS'78'
p264
aa(lp265
V\u6dee\u5b89
p266
aVhuaian
p267
aS'221'
p268
aa(lp269
V\u60e0\u5dde
p270
aVhuizhou
p271
aS'106'
p272
aa(lp273
V\u8861\u6c34
p274
aVhengshui
p275
aS'206'
p276
aa(lp277
V\u6dee\u5317
p278
aVhuaibei
p279
aS'145'
p280
aa(lp281
V\u6dee\u5357
p282
aVhuainan
p283
aS'136'
p284
aa(lp285
V\u9ec4\u5c71
p286
aVhuangshan
p287
aS'95'
p288
aa(lp289
V\u9ec4\u5c71\u98ce\u666f\u533a
p290
aVhuangshangjq
p291
aS'41'
p292
aa(lp293
V\u83cf\u6cfd
p294
aVheze
p295
aS'216'
p296
aa(lp297
V\u9e64\u58c1
p298
aVhebi
p299
aS'87'
p300
aa(lp301
V\u9ec4\u5188
p302
aVhuanggan
p303
aS'50'
p304
aa(lp305
V\u547c\u4f26\u8d1d\u5c14
p306
aVhulunbeier
p307
aS'58'
p308
aa(lp309
V\u6cb3\u6e90
p310
aVheyuan
p311
aS'118'
p312
aa(lp313
V\u846b\u82a6\u5c9b
p314
aVhuludao
p315
aS'161'
p316
aa(lp317
V\u9526\u5dde
p318
aVjinzhou
p319
aS'75'
p320
aa(lp321
V\u5409\u6797
p322
aVjilin
p323
aS'72'
p324
aa(lp325
V\u5609\u5174
p326
aVjiaxing
p327
aS'405'
p328
aa(lp329
V\u4e5d\u6c5f
p330
aVjiujiang
p331
aS'135'
p332
aa(lp333
V\u6d4e\u5357
p334
aVjinan
p335
aS'192'
p336
aa(lp337
V\u6d4e\u5b81
p338
aVjining
p339
aS'260'
p340
aa(lp341
V\u7126\u4f5c
p342
aVjiaozuo
p343
aS'90'
p344
aa(lp345
V\u8346\u5dde
p346
aVjingzhou
p347
aS'179'
p348
aa(lp349
V\u91d1\u660c
p350
aVjinchang
p351
aS'97'
p352
aa(lp353
V\u6c5f\u95e8
p354
aVjiangmen
p355
aS'120'
p356
aa(lp357
V\u91d1\u534e
p358
aVjinhua
p359
aS'362'
p360
aa(lp361
V\u664b\u57ce
p362
aVjincheng
p363
aS'106'
p364
aa(lp365
V\u664b\u4e2d
p366
aVjinzhong
p367
aS'162'
p368
aa(lp369
V\u4e5d\u534e\u5c71\u98ce\u666f\u533a
p370
aVjiuhuanshanjq
p371
aS'33'
p372
aa(lp373
V\u5409\u5b89
p374
aVjian
p375
aS'92'
p376
aa(lp377
V\u666f\u5fb7\u9547
p378
aVjingdezhen
p379
aS'95'
p380
aa(lp381
V\u5f00\u5c01
p382
aVkaifeng
p383
aS'92'
p384
aa(lp385
V\u6606\u660e
p386
aVkunming
p387
aS'58'
p388
aa(lp389
V\u514b\u62c9\u739b\u4f9d
p390
aVkelamayi
p391
aS'39'
p392
aa(lp393
V\u4e34\u6c7e
p394
aVlinfen
p395
aS'87'
p396
aa(lp397
V\u8fde\u4e91\u6e2f
p398
aVlianyungang
p399
aS'168'
p400
aa(lp401
V\u6d1b\u9633
p402
aVluoyang
p403
aS'75'
p404
aa(lp405
V\u67f3\u5dde
p406
aVliuzhou
p407
aS'184'
p408
aa(lp409
V\u6cf8\u5dde
p410
aVluzhou
p411
aS'153'
p412
aa(lp413
V\u62c9\u8428
p414
aVlasa
p415
aS'58'
p416
aa(lp417
V\u5170\u5dde
p418
aVlanzhou
p419
aS'159'
p420
aa(lp421
V\u4e3d\u6c34
p422
aVlishui
p423
aS'206'
p424
aa(lp425
V\u5eca\u574a
p426
aVlangfang
p427
aS'286'
p428
aa(lp429
V\u5415\u6881
p430
aVluliang
p431
aS'92'
p432
aa(lp433
V\u8fbd\u9633
p434
aVliaoyang
p435
aS'64'
p436
aa(lp437
V\u516d\u5b89
p438
aVliuan
p439
aS'106'
p440
aa(lp441
V\u4e50\u5c71
p442
aVleshan
p443
aS'73'
p444
aa(lp445
V\u83b1\u829c
p446
aVlaiwu
p447
aS'300'
p448
aa(lp449
V\u4e34\u6c82
p450
aVlinyi
p451
aS'273'
p452
aa(lp453
V\u804a\u57ce
p454
aVliaocheng
p455
aS'274'
p456
aa(lp457
V\u6f2f\u6cb3
p458
aVluohe
p459
aS'105'
p460
aa(lp461
V\u4e3d\u6c5f
p462
aVlijiang
p463
aS'49'
p464
aa(lp465
V\u4e34\u6ca7
p466
aVlincang
p467
aS'46'
p468
aa(lp469
V\u6797\u829d
p470
aVlinzhi
p471
aS'37'
p472
aa(lp473
V\u9f99\u5ca9
p474
aVlongyan
p475
aS'77'
p476
aa(lp477
V\u7261\u4e39\u6c5f
p478
aVmudanjiang
p479
aS'51'
p480
aa(lp481
V\u9a6c\u978d\u5c71
p482
aVmaanshan
p483
aS'278'
p484
aa(lp485
V\u7ef5\u9633
p486
aVmianyang
p487
aS'93'
p488
aa(lp489
V\u5357\u4eac
p490
aVnanjing
p491
aS'248'
p492
aa(lp493
V\u5357\u901a
p494
aVnantong
p495
aS'132'
p496
aa(lp497
V\u5b81\u6ce2
p498
aVningbo
p499
aS'500'
p500
aa(lp501
V\u5357\u660c
p502
aVnanchang
p503
aS'220'
p504
aa(lp505
V\u5357\u5b81
p506
aVnanning
p507
aS'161'
p508
aa(lp509
V\u5357\u5145
p510
aVnanchong
p511
aS'121'
p512
aa(lp513
V\u5357\u9633
p514
aVnanyang
p515
aS'79'
p516
aa(lp517
V\u90a3\u66f2
p518
aVnaqu
p519
aS'76'
p520
aa(lp521
V\u5357\u5e73
p522
aVnanping
p523
aS'80'
p524
aa(lp525
V\u5e73\u9876\u5c71
p526
aVpingdingshan
p527
aS'122'
p528
aa(lp529
V\u6500\u679d\u82b1
p530
aVpanzhihua
p531
aS'75'
p532
aa(lp533
V\u76d8\u9526
p534
aVpanjin
p535
aS'160'
p536
aa(lp537
V\u840d\u4e61
p538
aVpingxiang
p539
aS'69'
p540
aa(lp541
V\u6fee\u9633
p542
aVpuyang
p543
aS'113'
p544
aa(lp545
V\u8386\u7530
p546
aVputian
p547
aS'53'
p548
aa(lp549
V\u79e6\u7687\u5c9b
p550
aVqinhuangdao
p551
aS'88'
p552
aa(lp553
V\u9f50\u9f50\u54c8\u5c14
p554
aVqiqihaer
p555
aS'46'
p556
aa(lp557
V\u6cc9\u5dde
p558
aVquanzhou
p559
aS'65'
p560
aa(lp561
V\u9752\u5c9b
p562
aVqingdao
p563
aS'71'
p564
aa(lp565
V\u66f2\u9756
p566
aVqujing
p567
aS'76'
p568
aa(lp569
V\u8862\u5dde
p570
aVquzhou
p571
aS'277'
p572
aa(lp573
V\u5ffb\u5dde
p574
aVqizhou
p575
aS'97'
p576
aa(lp577
V\u6e05\u8fdc
p578
aVqingyuan
p579
aS'138'
p580
aa(lp581
V\u65e5\u7167
p582
aVrizhao
p583
aS'143'
p584
aa(lp585
V\u65e5\u5580\u5219
p586
aVrikaze
p587
aS'78'
p588
aa(lp589
V\u77f3\u5bb6\u5e84
p590
aVshijiazhuang
p591
aS'404'
p592
aa(lp593
V\u6c88\u9633
p594
aVshenyang
p595
aS'117'
p596
aa(lp597
V\u6c55\u5934
p598
aVshantou
p599
aS'79'
p600
aa(lp601
V\u82cf\u5dde
p602
aVsuzhou
p603
aS'416'
p604
aa(lp605
V\u7ecd\u5174
p606
aVshaoxing
p607
aS'490'
p608
aa(lp609
V\u4e09\u95e8\u5ce1
p610
aVsanmenxia
p611
aS'81'
p612
aa(lp613
V\u97f6\u5173
p614
aVshaoguan
p615
aS'190'
p616
aa(lp617
V\u6df1\u5733
p618
aVshenzhen
p619
aS'116'
p620
aa(lp621
V\u4e09\u4e9a
p622
aVsanya
p623
aS'65'
p624
aa(lp625
V\u77f3\u5634\u5c71
p626
aVshizuishan
p627
aS'59'
p628
aa(lp629
V\u5bbf\u8fc1
p630
aVsuqian
p631
aS'221'
p632
aa(lp633
V\u6714\u5dde
p634
aVshuozhou
p635
aS'102'
p636
aa(lp637
V\u5bbf\u5dde
p638
aVsuzhoushi
p639
aS'100'
p640
aa(lp641
V\u9042\u5b81
p642
aVsuiing
p643
aS'90'
p644
aa(lp645
V\u4e0a\u9976
p646
aVshangrao
p647
aS'88'
p648
aa(lp649
V\u5546\u4e18
p650
aVshangqiu
p651
aS'89'
p652
aa(lp653
V\u968f\u5dde
p654
aVsuizhou
p655
aS'50'
p656
aa(lp657
V\u662d\u901a
p658
aVshaotong
p659
aS'52'
p660
aa(lp661
V\u5c71\u5357
p662
aVshannan
p663
aS'44'
p664
aa(lp665
V\u4e09\u660e
p666
aVsanming
p667
aS'87'
p668
aa(lp669
V\u5510\u5c71
p670
aVtangshan
p671
aS'178'
p672
aa(lp673
V\u592a\u539f
p674
aVtaiyuan
p675
aS'201'
p676
aa(lp677
V\u53f0\u5dde
p678
aVtaizhou
p679
aS'369'
p680
aa(lp681
V\u6cf0\u5b89
p682
aVtaian
p683
aS'274'
p684
aa(lp685
V\u94dc\u5ddd
p686
aVtongchuan
p687
aS'216'
p688
aa(lp689
V\u6cf0\u5dde
p690
aVtaizhoushi
p691
aS'306'
p692
aa(lp693
V\u94c1\u5cad
p694
aVtieling
p695
aS'55'
p696
aa(lp697
V\u94dc\u9675
p698
aVtongling
p699
aS'159'
p700
aa(lp701
V\u901a\u8fbd
p702
aVtongliao
p703
aS'37'
p704
aa(lp705
V\u65e0\u9521
p706
aVwuxi
p707
aS'432'
p708
aa(lp709
V\u6e29\u5dde
p710
aVwenzhou
p711
aS'254'
p712
aa(lp713
V\u829c\u6e56
p714
aVwuhu
p715
aS'255'
p716
aa(lp717
V\u6f4d\u574a
p718
aVweifang
p719
aS'111'
p720
aa(lp721
V\u5a01\u6d77
p722
aVweihai
p723
aS'41'
p724
aa(lp725
V\u6b66\u6c49
p726
aVwuhan
p727
aS'350'
p728
aa(lp729
V\u6e2d\u5357
p730
aVweinan
p731
aS'156'
p732
aa(lp733
V\u4e4c\u9c81\u6728\u9f50
p734
aVwulumuqi
p735
aS'59'
p736
aa(lp737
V\u6587\u5c71\u58ee\u65cf\u82d7\u65cf\u81ea\u6cbb\u5dde
p738
aVwenshan
p739
aS'71'
p740
aa(lp741
V\u4e4c\u6d77
p742
aVwuhai
p743
aS'105'
p744
aa(lp745
V\u5f90\u5dde
p746
aVxuzhou
p747
aS'202'
p748
aa(lp749
V\u53a6\u95e8
p750
aVxiamen
p751
aS'61'
p752
aa(lp753
V\u6e58\u6f6d
p754
aVxiangtan
p755
aS'213'
p756
aa(lp757
V\u897f\u5b89
p758
aVxian
p759
aS'176'
p760
aa(lp761
V\u54b8\u9633
p762
aVxianyang
p763
aS'212'
p764
aa(lp765
V\u897f\u5b81
p766
aVxining
p767
aS'90'
p768
aa(lp769
V\u90a2\u53f0
p770
aVxingtai
p771
aS'310'
p772
aa(lp773
V\u5ba3\u57ce
p774
aVxuancheng
p775
aS'237'
p776
aa(lp777
V\u65b0\u4f59
p778
aVxinyu
p779
aS'87'
p780
aa(lp781
V\u65b0\u4e61
p782
aVxinxiang
p783
aS'121'
p784
aa(lp785
V\u8bb8\u660c
p786
aVxuchang
p787
aS'97'
p788
aa(lp789
V\u4fe1\u9633
p790
aVxinyang
p791
aS'107'
p792
aa(lp793
V\u9633\u6cc9
p794
aVyangquan
p795
aS'76'
p796
aa(lp797
V\u626c\u5dde
p798
aVyangzhou
p799
aS'187'
p800
aa(lp801
V\u70df\u53f0
p802
aVyantai
p803
aS'79'
p804
aa(lp805
V\u5b9c\u660c
p806
aVyichang
p807
aS'100'
p808
aa(lp809
V\u5cb3\u9633
p810
aVyueyang
p811
aS'83'
p812
aa(lp813
V\u5b9c\u5bbe
p814
aVyibin
p815
aS'106'
p816
aa(lp817
V\u7389\u6eaa
p818
aVyuxi
p819
aS'50'
p820
aa(lp821
V\u5ef6\u5b89
p822
aVyanan
p823
aS'226'
p824
aa(lp825
V\u94f6\u5ddd
p826
aVyinchuan
p827
aS'224'
p828
aa(lp829
V\u76d0\u57ce
p830
aVyancheng
p831
aS'84'
p832
aa(lp833
V\u8fd0\u57ce
p834
aVyuncheng
p835
aS'88'
p836
aa(lp837
V\u8425\u53e3
p838
aVyingkou
p839
aS'82'
p840
aa(lp841
V\u96c5\u5b89
p842
aVyaan
p843
aS'67'
p844
aa(lp845
V\u5b9c\u6625
p846
aVyichun
p847
aS'78'
p848
aa(lp849
V\u9e70\u6f6d
p850
aVyingtan
p851
aS'85'
p852
aa(lp853
V\u9547\u6c5f
p854
aVzhenjiang
p855
aS'174'
p856
aa(lp857
V\u6dc4\u535a
p858
aVzibo
p859
aS'224'
p860
aa(lp861
V\u67a3\u5e84
p862
aVzaozhuang
p863
aS'279'
p864
aa(lp865
V\u90d1\u5dde
p866
aVzhengzhou
p867
aS'142'
p868
aa(lp869
V\u682a\u6d32
p870
aVzhuzhou
p871
aS'230'
p872
aa(lp873
V\u5f20\u5bb6\u754c
p874
aVzhangjiajie
p875
aS'141'
p876
aa(lp877
V\u73e0\u6d77
p878
aVzhuhai
p879
aS'112'
p880
aa(lp881
V\u6e5b\u6c5f
p882
aVzhanjiang
p883
aS'70'
p884
aa(lp885
V\u4e2d\u5c71
p886
aVzhongshan
p887
aS'120'
p888
aa(lp889
V\u81ea\u8d21
p890
aVzigong
p891
aS'124'
p892
aa(lp893
V\u9075\u4e49
p894
aVzunyi
p895
aS'93'
p896
aa(lp897
V\u8087\u5e86
p898
aVzhaoqing
p899
aS'155'
p900
aa(lp901
V\u5f20\u5bb6\u53e3
p902
aVzhangjiakou
p903
aS'159'
p904
aa(lp905
V\u821f\u5c71
p906
aVzhoushan
p907
aS'491'
p908
aa(lp909
V\u8d44\u9633
p910
aVziyang
p911
aS'76'
p912
aa(lp913
V\u5468\u53e3
p914
aVzhoukou
p915
aS'148'
p916
aa(lp917
V\u9a7b\u9a6c\u5e97
p918
aVzhumadian
p919
aS'102'
p920
aa.