(lp0
(lp1
V100000
p2
aS'61'
p3
aa(lp4
V200000
p5
aS'79'
p6
aa(lp7
V300000
p8
aS'218'
p9
aa(lp10
V400000
p11
aS'104'
p12
aa(lp13
V114000
p14
aS'47'
p15
aa(lp16
V455000
p17
aS'219'
p18
aa(lp19
V246000
p20
aS'96'
p21
aa(lp22
V859000
p23
aS'31'
p24
aa(lp25
V071000
p26
aS'242'
p27
aa(lp28
V014000
p29
aS'311'
p30
aa(lp31
V117000
p32
aS'71'
p33
aa(lp34
V536000
p35
aS'91'
p36
aa(lp37
V721000
p38
aS'103'
p39
aa(lp40
V236000
p41
aS'106'
p42
aa(lp43
V233000
p44
aS'85'
p45
aa(lp46
V636600
p47
aS'64'
p48
aa(lp49
V256600
p50
aS'260'
p51
aa(lp52
V678000
p53
aS'70'
p54
aa(lp55
V015000
p56
aS'42'
p57
aa(lp58
V046000
p59
aS'182'
p60
aa(lp61
V024000
p62
aS'121'
p63
aa(lp64
V130000
p65
aS'64'
p66
aa(lp67
V213000
p68
aS'67'
p69
aa(lp70
V410100
p71
aS'179'
p72
aa(lp73
V415000
p74
aS'257'
p75
aa(lp76
V610000
p77
aS'152'
p78
aa(lp79
V061000
p80
aS'258'
p81
aa(lp82
V067000
p83
aS'65'
p84
aa(lp85
V100020
p86
aS'82'
p87
aa(lp88
V239000
p89
aS'64'
p90
aa(lp91
V238000
p92
aS'45'
p93
aa(lp94
V247100
p95
aS'46'
p96
aa(lp97
V675000
p98
aS'52'
p99
aa(lp100
V854000
p101
aS'44'
p102
aa(lp103
V215500
p104
aS'90'
p105
aa(lp106
V920
p107
aS'52'
p108
aa(lp109
V037000
p110
aS'91'
p111
aa(lp112
V116000
p113
aS'104'
p114
aa(lp115
V163000
p116
aS'44'
p117
aa(lp118
V618000
p119
aS'86'
p120
aa(lp121
V523000
p122
aS'100'
p123
aa(lp124
V118000
p125
aS'53'
p126
aa(lp127
V635000
p128
aS'71'
p129
aa(lp130
V257000
p131
aS'222'
p132
aa(lp133
V253000
p134
aS'392'
p135
aa(lp136
V671000
p137
aS'41'
p138
aa(lp139
V017000
p140
aS'28'
p141
aa(lp142
V011100
p143
aS'50'
p144
aa(lp145
V113000
p146
aS'100'
p147
aa(lp148
V350000
p149
aS'53'
p150
aa(lp151
V528000
p152
aS'100'
p153
aa(lp154
V123000
p155
aS'99'
p156
aa(lp157
V236000
p158
aS'132'
p159
aa(lp160
V344000
p161
aS'64'
p162
aa(lp163
V311400
p164
aS'87'
p165
aa(lp166
V510000
p167
aS'92'
p168
aa(lp169
V541000
p170
aS'165'
p171
aa(lp172
V550000
p173
aS'78'
p174
aa(lp175
V638500
p176
aS'57'
p177
aa(lp178
V628000
p179
aS'53'
p180
aa(lp181
V341000
p182
aS'52'
p183
aa(lp184
V056000
p185
aS'254'
p186
aa(lp187
V010000
p188
aS'124'
p189
aa(lp190
V150000
p191
aS'86'
p192
aa(lp193
V310000
p194
aS'76'
p195
aa(lp196
V313000
p197
aS'92'
p198
aa(lp199
V230000
p200
aS'113'
p201
aa(lp202
V570100
p203
aS'50'
p204
aa(lp205
V223001
p206
aS'102'
p207
aa(lp208
V516000
p209
aS'76'
p210
aa(lp211
V053000
p212
aS'319'
p213
aa(lp214
V235000
p215
aS'72'
p216
aa(lp217
V232000
p218
aS'110'
p219
aa(lp220
V242700
p221
aS'40'
p222
aa(lp223
V274000
p224
aS'214'
p225
aa(lp226
V458000
p227
aS'74'
p228
aa(lp229
V438000
p230
aS'101'
p231
aa(lp232
V021000
p233
aS'57'
p234
aa(lp235
V517000
p236
aS'72'
p237
aa(lp238
V125000
p239
aS'43'
p240
aa(lp241
V226100
p242
aS'68'
p243
aa(lp244
V121000
p245
aS'100'
p246
aa(lp247
V132000
p248
aS'28'
p249
aa(lp250
V314000
p251
aS'75'
p252
aa(lp253
V332000
p254
aS'65'
p255
aa(lp256
V250000
p257
aS'185'
p258
aa(lp259
V272000
p260
aS'138'
p261
aa(lp262
V454100
p263
aS'263'
p264
aa(lp265
V434000
p266
aS'231'
p267
aa(lp268
V737100
p269
aS'113'
p270
aa(lp271
V529000
p272
aS'116'
p273
aa(lp274
V321000
p275
aS'84'
p276
aa(lp277
V048000
p278
aS'79'
p279
aa(lp280
V030600
p281
aS'107'
p282
aa(lp283
V343100
p284
aS'71'
p285
aa(lp286
V333000
p287
aS'62'
p288
aa(lp289
V214400
p290
aS'80'
p291
aa(lp292
V213200
p293
aS'74'
p294
aa(lp295
V266300
p296
aS'167'
p297
aa(lp298
V266200
p299
aS'106'
p300
aa(lp301
V266400
p302
aS'160'
p303
aa(lp304
V212400
p305
aS'97'
p306
aa(lp307
V522000
p308
aS'67'
p309
aa(lp310
V735100
p311
aS'56'
p312
aa(lp313
V475000
p314
aS'173'
p315
aa(lp316
V650000
p317
aS'34'
p318
aa(lp319
V834000
p320
aS'78'
p321
aa(lp322
V841000
p323
aS'129'
p324
aa(lp325
V215300
p326
aS'83'
p327
aa(lp328
V041000
p329
aS'70'
p330
aa(lp331
V222000
p332
aS'131'
p333
aa(lp334
V471000
p335
aS'170'
p336
aa(lp337
V545000
p338
aS'171'
p339
aa(lp340
V646000
p341
aS'109'
p342
aa(lp343
V850000
p344
aS'44'
p345
aa(lp346
V730000
p347
aS'90'
p348
aa(lp349
V323000
p350
aS'73'
p351
aa(lp352
V065000
p353
aS'257'
p354
aa(lp355
V033000
p356
aS'109'
p357
aa(lp358
V111000
p359
aS'95'
p360
aa(lp361
V237000
p362
aS'172'
p363
aa(lp364
V614000
p365
aS'63'
p366
aa(lp367
V271100
p368
aS'179'
p369
aa(lp370
V276000
p371
aS'222'
p372
aa(lp373
V252000
p374
aS'297'
p375
aa(lp376
V462000
p377
aS'106'
p378
aa(lp379
V674100
p380
aS'32'
p381
aa(lp382
V677000
p383
aS'56'
p384
aa(lp385
V860000
p386
aS'23'
p387
aa(lp388
V364000
p389
aS'45'
p390
aa(lp391
V213300
p392
aS'76'
p393
aa(lp394
V311300
p395
aS'98'
p396
aa(lp397
V266600
p398
aS'171'
p399
aa(lp400
V261400
p401
aS'109'
p402
aa(lp403
V157000
p404
aS'89'
p405
aa(lp406
V243000
p407
aS'94'
p408
aa(lp409
V621000
p410
aS'96'
p411
aa(lp412
V525000
p413
aS'74'
p414
aa(lp415
V514000
p416
aS'49'
p417
aa(lp418
V210000
p419
aS'100'
p420
aa(lp421
V226000
p422
aS'70'
p423
aa(lp424
V315000
p425
aS'57'
p426
aa(lp427
V330000
p428
aS'53'
p429
aa(lp430
V530000
p431
aS'168'
p432
aa(lp433
V637000
p434
aS'156'
p435
aa(lp436
V473000
p437
aS'127'
p438
aa(lp439
V852000
p440
aS'84'
p441
aa(lp442
V353000
p443
aS'33'
p444
aa(lp445
V467000
p446
aS'387'
p447
aa(lp448
V617000
p449
aS'125'
p450
aa(lp451
V124000
p452
aS'55'
p453
aa(lp454
V337000
p455
aS'83'
p456
aa(lp457
V457000
p458
aS'78'
p459
aa(lp460
V351100
p461
aS'51'
p462
aa(lp463
V266700
p464
aS'164'
p465
aa(lp466
V265600
p467
aS'90'
p468
aa(lp469
V066000
p470
aS'96'
p471
aa(lp472
V161000
p473
aS'57'
p474
aa(lp475
V362000
p476
aS'47'
p477
aa(lp478
V266000
p479
aS'164'
p480
aa(lp481
V655000
p482
aS'46'
p483
aa(lp484
V324000
p485
aS'98'
p486
aa(lp487
V034000
p488
aS'49'
p489
aa(lp490
V511500
p491
aS'78'
p492
aa(lp493
V276800
p494
aS'134'
p495
aa(lp496
V857000
p497
aS'52'
p498
aa(lp499
V264300
p500
aS'53'
p501
aa(lp502
V264500
p503
aS'96'
p504
aa(lp505
V050000
p506
aS'280'
p507
aa(lp508
V110000
p509
aS'81'
p510
aa(lp511
V515000
p512
aS'58'
p513
aa(lp514
V215000
p515
aS'85'
p516
aa(lp517
V312000
p518
aS'75'
p519
aa(lp520
V472000
p521
aS'168'
p522
aa(lp523
V512000
p524
aS'83'
p525
aa(lp526
V518000
p527
aS'78'
p528
aa(lp529
V572000
p530
aS'46'
p531
aa(lp532
V753000
p533
aS'128'
p534
aa(lp535
V223800
p536
aS'80'
p537
aa(lp538
V036000
p539
aS'95'
p540
aa(lp541
V234000
p542
aS'74'
p543
aa(lp544
V629000
p545
aS'81'
p546
aa(lp547
V334000
p548
aS'40'
p549
aa(lp550
V476000
p551
aS'84'
p552
aa(lp553
V441300
p554
aS'76'
p555
aa(lp556
V657000
p557
aS'52'
p558
aa(lp559
V856000
p560
aS'44'
p561
aa(lp562
V365000
p563
aS'48'
p564
aa(lp565
V262700
p566
aS'203'
p567
aa(lp568
V516600
p569
aS'59'
p570
aa(lp571
V063000
p572
aS'232'
p573
aa(lp574
V030000
p575
aS'106'
p576
aa(lp577
V318000
p578
aS'54'
p579
aa(lp580
V271000
p581
aS'218'
p582
aa(lp583
V727000
p584
aS'129'
p585
aa(lp586
V225300
p587
aS'94'
p588
aa(lp589
V112600
p590
aS'74'
p591
aa(lp592
V244000
p593
aS'69'
p594
aa(lp595
V028000
p596
aS'30'
p597
aa(lp598
V215400
p599
aS'85'
p600
aa(lp601
V214000
p602
aS'78'
p603
aa(lp604
V325000
p605
aS'64'
p606
aa(lp607
V241100
p608
aS'100'
p609
aa(lp610
V261000
p611
aS'177'
p612
aa(lp613
V264200
p614
aS'59'
p615
aa(lp616
V430000
p617
aS'145'
p618
aa(lp619
V714000
p620
aS'270'
p621
aa(lp622
V830000
p623
aS'355'
p624
aa(lp625
V663000
p626
aS'65'
p627
aa(lp628
V016000
p629
aS'82'
p630
aa(lp631
V116300
p632
aS'62'
p633
aa(lp634
V215200
p635
aS'222'
p636
aa(lp637
V264400
p638
aS'55'
p639
aa(lp640
V221000
p641
aS'122'
p642
aa(lp643
V361000
p644
aS'44'
p645
aa(lp646
V411100
p647
aS'123'
p648
aa(lp649
V710000
p650
aS'185'
p651
aa(lp652
V712000
p653
aS'156'
p654
aa(lp655
V810000
p656
aS'123'
p657
aa(lp658
V054000
p659
aS'234'
p660
aa(lp661
V242000
p662
aS'57'
p663
aa(lp664
V338000
p665
aS'100'
p666
aa(lp667
V453000
p668
aS'97'
p669
aa(lp670
V461000
p671
aS'88'
p672
aa(lp673
V464000
p674
aS'93'
p675
aa(lp676
V264000
p677
aS'66'
p678
aa(lp679
V443000
p680
aS'250'
p681
aa(lp682
V414000
p683
aS'186'
p684
aa(lp685
V644000
p686
aS'123'
p687
aa(lp688
V653100
p689
aS'34'
p690
aa(lp691
V716000
p692
aS'77'
p693
aa(lp694
V750000
p695
aS'122'
p696
aa(lp697
V224000
p698
aS'94'
p699
aa(lp700
V044000
p701
aS'69'
p702
aa(lp703
V115000
p704
aS'26'
p705
aa(lp706
V625000
p707
aS'56'
p708
aa(lp709
V336000
p710
aS'66'
p711
aa(lp712
V335000
p713
aS'57'
p714
aa(lp715
V214200
p716
aS'75'
p717
aa(lp718
V322000
p719
aS'75'
p720
aa(lp721
V529500
p722
aS'108'
p723
aa(lp724
V527300
p725
aS'71'
p726
aa(lp727
V212000
p728
aS'88'
p729
aa(lp730
V255000
p731
aS'208'
p732
aa(lp733
V277000
p734
aS'166'
p735
aa(lp736
V450000
p737
aS'202'
p738
aa(lp739
V412000
p740
aS'100'
p741
aa(lp742
V427000
p743
aS'187'
p744
aa(lp745
V519000
p746
aS'95'
p747
aa(lp748
V524000
p749
aS'49'
p750
aa(lp751
V116000
p752
aS'112'
p753
aa(lp754
V643000
p755
aS'132'
p756
aa(lp757
V563000
p758
aS'67'
p759
aa(lp760
V526000
p761
aS'108'
p762
aa(lp763
V075000
p764
aS'85'
p765
aa(lp766
V316000
p767
aS'49'
p768
aa(lp769
V641300
p770
aS'72'
p771
aa(lp772
V466000
p773
aS'115'
p774
aa(lp775
V463000
p776
aS'116'
p777
aa(lp778
V215600
p779
aS'80'
p780
aa(lp781
V311800
p782
aS'76'
p783
aa(lp784
V250200
p785
aS'102'
p786
aa(lp787
V265400
p788
aS'109'
p789
aa.